target datalayout = "e-m:e-p270:32:32-p271:32:32-p272:64:64-i64:64-i128:128-f80:128-n8:16:32:64-S128"
target triple = "x86_64-unknown-linux-gnu"

%struct.TPMEmulator = type { %struct.TPMBackend, ptr, %struct.CharBackend, ptr, i32, i64, i8, ptr, %struct.QemuMutex, i8, %struct.TPMBlobBuffers, i8, ptr }
%struct.TPMBackend = type { %struct.Object, ptr, i8, i8, ptr, ptr, %struct.anon }
%struct.Object = type { ptr, ptr, ptr, i32, ptr }
%struct.anon = type { ptr, ptr }
%struct.CharBackend = type { ptr, ptr, ptr, ptr, ptr, ptr, i32, i32 }
%struct.QemuMutex = type { %union.pthread_mutex_t, i8 }
%union.pthread_mutex_t = type { %struct.__pthread_mutex_s }
%struct.__pthread_mutex_s = type { i32, i32, i32, i32, i32, i16, i16, %struct.__pthread_internal_list }
%struct.__pthread_internal_list = type { ptr, ptr }
%struct.TPMBlobBuffers = type { i32, %struct.TPMSizedBuffer, i32, %struct.TPMSizedBuffer, i32, %struct.TPMSizedBuffer }
%struct.TPMSizedBuffer = type { i32, ptr }
%struct.timeval = type { i64, i64 }
%struct.QemuLockable = type { ptr, ptr, ptr }
%struct.ptm_est = type { %union.anon.14 }
%union.anon.14 = type { %struct.anon.15 }
%struct.anon.15 = type { i32, i8 }

@.str = private unnamed_addr constant [13 x i8] c"tpm-emulator\00", align 1
@.str.2 = private unnamed_addr constant [36 x i8] c"../qemu/backends/tpm/tpm_emulator.c\00", align 1
@__func__.TPM_EMULATOR = private unnamed_addr constant [13 x i8] c"TPM_EMULATOR\00", align 1
@trace_events_enabled_count = external global i32, align 4
@message_with_timestamp = external global i8, align 1
@qemu_loglevel = external global i32, align 4
@.str.104 = private unnamed_addr constant [57 x i8] c"tpm-emulator: Could not get the TPM established flag: %s\00", align 1
@_TRACE_TPM_EMULATOR_GET_TPM_ESTABLISHED_FLAG_DSTATE = external global i16, align 2
@.str.105 = private unnamed_addr constant [77 x i8] c"%d@%zu.%06zu:tpm_emulator_get_tpm_established_flag got established flag: %d\0A\00", align 1
@.str.106 = private unnamed_addr constant [64 x i8] c"tpm_emulator_get_tpm_established_flag got established flag: %d\0A\00", align 1

; Function Attrs: nounwind sspstrong uwtable
define internal zeroext i1 @qemu_loglevel_mask(i32 noundef %mask) #0 {
entry:
  %mask.addr = alloca i32, align 4
  store i32 %mask, ptr %mask.addr, align 4
  %0 = load i32, ptr @qemu_loglevel, align 4
  %1 = load i32, ptr %mask.addr, align 4
  %and = and i32 %0, %1
  %cmp = icmp ne i32 %and, 0
  ret i1 %cmp
}

; Function Attrs: nounwind sspstrong uwtable
define internal void @glib_autoptr_clear_QemuLockable(ptr noundef %_ptr) #0 {
entry:
  %_ptr.addr = alloca ptr, align 8
  store ptr %_ptr, ptr %_ptr.addr, align 8
  %0 = load ptr, ptr %_ptr.addr, align 8
  %tobool = icmp ne ptr %0, null
  br i1 %tobool, label %if.then, label %if.end

if.then:                                          ; preds = %entry
  %1 = load ptr, ptr %_ptr.addr, align 8
  call void @qemu_lockable_auto_unlock(ptr noundef %1)
  br label %if.end

if.end:                                           ; preds = %if.then, %entry
  ret void
}

; Function Attrs: nounwind sspstrong uwtable
define internal void @qemu_lockable_unlock(ptr noundef %x) #0 {
entry:
  %x.addr = alloca ptr, align 8
  store ptr %x, ptr %x.addr, align 8
  %0 = load ptr, ptr %x.addr, align 8
  %unlock = getelementptr inbounds %struct.QemuLockable, ptr %0, i32 0, i32 2
  %1 = load ptr, ptr %unlock, align 8
  %2 = load ptr, ptr %x.addr, align 8
  %object = getelementptr inbounds %struct.QemuLockable, ptr %2, i32 0, i32 0
  %3 = load ptr, ptr %object, align 8
  call void %1(ptr noundef %3)
  ret void
}

; Function Attrs: nounwind sspstrong uwtable
define internal void @qemu_lockable_lock(ptr noundef %x) #0 {
entry:
  %x.addr = alloca ptr, align 8
  store ptr %x, ptr %x.addr, align 8
  %0 = load ptr, ptr %x.addr, align 8
  %lock = getelementptr inbounds %struct.QemuLockable, ptr %0, i32 0, i32 1
  %1 = load ptr, ptr %lock, align 8
  %2 = load ptr, ptr %x.addr, align 8
  %object = getelementptr inbounds %struct.QemuLockable, ptr %2, i32 0, i32 0
  %3 = load ptr, ptr %object, align 8
  call void %1(ptr noundef %3)
  ret void
}

; Function Attrs: nounwind sspstrong uwtable
define internal void @_nocheck__trace_tpm_emulator_get_tpm_established_flag(i8 noundef zeroext %flag) #0 {
entry:
  %flag.addr = alloca i8, align 1
  %_now = alloca %struct.timeval, align 8
  store i8 %flag, ptr %flag.addr, align 1
  %0 = load i32, ptr @trace_events_enabled_count, align 4
  %tobool = icmp ne i32 %0, 0
  %lnot = xor i1 %tobool, true
  %lnot1 = xor i1 %lnot, true
  %lnot.ext = zext i1 %lnot1 to i32
  %conv = sext i32 %lnot.ext to i64
  %tobool2 = icmp ne i64 %conv, 0
  br i1 %tobool2, label %land.lhs.true, label %if.end13

land.lhs.true:                                    ; preds = %entry
  %1 = load i16, ptr @_TRACE_TPM_EMULATOR_GET_TPM_ESTABLISHED_FLAG_DSTATE, align 2
  %conv3 = zext i16 %1 to i32
  %tobool4 = icmp ne i32 %conv3, 0
  br i1 %tobool4, label %land.lhs.true5, label %if.end13

land.lhs.true5:                                   ; preds = %land.lhs.true
  %call = call zeroext i1 @qemu_loglevel_mask(i32 noundef 32768)
  br i1 %call, label %if.then, label %if.end13

if.then:                                          ; preds = %land.lhs.true5
  %2 = load i8, ptr @message_with_timestamp, align 1
  %tobool7 = trunc i8 %2 to i1
  br i1 %tobool7, label %if.then8, label %if.else

if.then8:                                         ; preds = %if.then
  %call9 = call i32 @gettimeofday(ptr noundef %_now, ptr noundef null) #11
  %call10 = call i32 @qemu_get_thread_id()
  %tv_sec = getelementptr inbounds %struct.timeval, ptr %_now, i32 0, i32 0
  %3 = load i64, ptr %tv_sec, align 8
  %tv_usec = getelementptr inbounds %struct.timeval, ptr %_now, i32 0, i32 1
  %4 = load i64, ptr %tv_usec, align 8
  %5 = load i8, ptr %flag.addr, align 1
  %conv11 = zext i8 %5 to i32
  call void (ptr, ...) @qemu_log(ptr noundef @.str.105, i32 noundef %call10, i64 noundef %3, i64 noundef %4, i32 noundef %conv11)
  br label %if.end

if.else:                                          ; preds = %if.then
  %6 = load i8, ptr %flag.addr, align 1
  %conv12 = zext i8 %6 to i32
  call void (ptr, ...) @qemu_log(ptr noundef @.str.106, i32 noundef %conv12)
  br label %if.end

if.end:                                           ; preds = %if.else, %if.then8
  br label %if.end13

if.end13:                                         ; preds = %if.end, %land.lhs.true5, %land.lhs.true, %entry
  ret void
}

; Function Attrs: nounwind sspstrong uwtable
define internal void @glib_autoptr_cleanup_QemuLockable(ptr noundef %_ptr) #0 {
entry:
  %_ptr.addr = alloca ptr, align 8
  store ptr %_ptr, ptr %_ptr.addr, align 8
  %0 = load ptr, ptr %_ptr.addr, align 8
  %1 = load ptr, ptr %0, align 8
  call void @glib_autoptr_clear_QemuLockable(ptr noundef %1)
  ret void
}

; Function Attrs: nounwind sspstrong uwtable
define internal void @qemu_lockable_auto_unlock(ptr noundef %x) #0 {
entry:
  %x.addr = alloca ptr, align 8
  store ptr %x, ptr %x.addr, align 8
  %0 = load ptr, ptr %x.addr, align 8
  %tobool = icmp ne ptr %0, null
  br i1 %tobool, label %if.then, label %if.end

if.then:                                          ; preds = %entry
  %1 = load ptr, ptr %x.addr, align 8
  call void @qemu_lockable_unlock(ptr noundef %1)
  br label %if.end

if.end:                                           ; preds = %if.then, %entry
  ret void
}

; Function Attrs: nounwind sspstrong uwtable
define internal ptr @qemu_lockable_auto_lock(ptr noundef %x) #0 {
entry:
  %x.addr = alloca ptr, align 8
  store ptr %x, ptr %x.addr, align 8
  %0 = load ptr, ptr %x.addr, align 8
  call void @qemu_lockable_lock(ptr noundef %0)
  %1 = load ptr, ptr %x.addr, align 8
  ret ptr %1
}

; Function Attrs: nounwind sspstrong uwtable
define internal i32 @cpu_to_be32(i32 noundef %v) #0 {
entry:
  %v.addr = alloca i32, align 4
  store i32 %v, ptr %v.addr, align 4
  %0 = load i32, ptr %v.addr, align 4
  %1 = call i32 @llvm.bswap.i32(i32 %0)
  ret i32 %1
}

; Function Attrs: nounwind sspstrong uwtable
define internal void @trace_tpm_emulator_get_tpm_established_flag(i8 noundef zeroext %flag) #0 {
entry:
  %flag.addr = alloca i8, align 1
  store i8 %flag, ptr %flag.addr, align 1
  %0 = load i8, ptr %flag.addr, align 1
  call void @_nocheck__trace_tpm_emulator_get_tpm_established_flag(i8 noundef zeroext %0)
  ret void
}

; Function Attrs: nounwind sspstrong uwtable
define internal i32 @tpm_emulator_ctrlcmd(ptr noundef %tpm, i64 noundef %cmd, ptr noundef %msg, i64 noundef %msg_len_in, i64 noundef %msg_len_out) #0 {
entry:
  %retval = alloca i32, align 4
  %tpm.addr = alloca ptr, align 8
  %cmd.addr = alloca i64, align 8
  %msg.addr = alloca ptr, align 8
  %msg_len_in.addr = alloca i64, align 8
  %msg_len_out.addr = alloca i64, align 8
  %dev = alloca ptr, align 8
  %cmd_no = alloca i32, align 4
  %n = alloca i64, align 8
  %buf = alloca ptr, align 8
  %qemu_lockable_auto0 = alloca ptr, align 8
  %.compoundliteral = alloca %struct.QemuLockable, align 8
  %cleanup.dest.slot = alloca i32, align 4
  store ptr %tpm, ptr %tpm.addr, align 8
  store i64 %cmd, ptr %cmd.addr, align 8
  store ptr %msg, ptr %msg.addr, align 8
  store i64 %msg_len_in, ptr %msg_len_in.addr, align 8
  store i64 %msg_len_out, ptr %msg_len_out.addr, align 8
  %0 = load ptr, ptr %tpm.addr, align 8
  %ctrl_chr = getelementptr inbounds %struct.TPMEmulator, ptr %0, i32 0, i32 2
  store ptr %ctrl_chr, ptr %dev, align 8
  %1 = load i64, ptr %cmd.addr, align 8
  %conv = trunc i64 %1 to i32
  %call = call i32 @cpu_to_be32(i32 noundef %conv)
  store i32 %call, ptr %cmd_no, align 4
  %2 = load i64, ptr %msg_len_in.addr, align 8
  %add = add i64 4, %2
  store i64 %add, ptr %n, align 8
  store ptr null, ptr %buf, align 8
  %object = getelementptr inbounds %struct.QemuLockable, ptr %.compoundliteral, i32 0, i32 0
  %3 = load ptr, ptr %tpm.addr, align 8
  %mutex = getelementptr inbounds %struct.TPMEmulator, ptr %3, i32 0, i32 8
  store ptr %mutex, ptr %object, align 8
  %lock = getelementptr inbounds %struct.QemuLockable, ptr %.compoundliteral, i32 0, i32 1
  store ptr @qemu_mutex_lock, ptr %lock, align 8
  %unlock = getelementptr inbounds %struct.QemuLockable, ptr %.compoundliteral, i32 0, i32 2
  store ptr @qemu_mutex_unlock, ptr %unlock, align 8
  %call1 = call ptr @qemu_lockable_auto_lock(ptr noundef %.compoundliteral)
  store ptr %call1, ptr %qemu_lockable_auto0, align 8
  br label %for.cond

for.cond:                                         ; preds = %for.inc, %entry
  %4 = load ptr, ptr %qemu_lockable_auto0, align 8
  %tobool = icmp ne ptr %4, null
  br i1 %tobool, label %for.body, label %for.cond.cleanup

for.cond.cleanup:                                 ; preds = %for.cond
  store i32 2, ptr %cleanup.dest.slot, align 4
  br label %cleanup

for.body:                                         ; preds = %for.cond
  %5 = load i64, ptr %n, align 8
  %6 = alloca i8, i64 %5, align 16
  store ptr %6, ptr %buf, align 8
  %7 = load ptr, ptr %buf, align 8
  call void @llvm.memcpy.p0.p0.i64(ptr align 1 %7, ptr align 4 %cmd_no, i64 4, i1 false)
  %8 = load ptr, ptr %buf, align 8
  %add.ptr = getelementptr i8, ptr %8, i64 4
  %9 = load ptr, ptr %msg.addr, align 8
  %10 = load i64, ptr %msg_len_in.addr, align 8
  call void @llvm.memcpy.p0.p0.i64(ptr align 1 %add.ptr, ptr align 1 %9, i64 %10, i1 false)
  %11 = load ptr, ptr %dev, align 8
  %12 = load ptr, ptr %buf, align 8
  %13 = load i64, ptr %n, align 8
  %conv2 = trunc i64 %13 to i32
  %call3 = call i32 @qemu_chr_fe_write_all(ptr noundef %11, ptr noundef %12, i32 noundef %conv2)
  %conv4 = sext i32 %call3 to i64
  store i64 %conv4, ptr %n, align 8
  %14 = load i64, ptr %n, align 8
  %cmp = icmp sle i64 %14, 0
  br i1 %cmp, label %if.then, label %if.end

if.then:                                          ; preds = %for.body
  store i32 -1, ptr %retval, align 4
  store i32 1, ptr %cleanup.dest.slot, align 4
  br label %cleanup

if.end:                                           ; preds = %for.body
  %15 = load i64, ptr %msg_len_out.addr, align 8
  %cmp6 = icmp ne i64 %15, 0
  br i1 %cmp6, label %if.then8, label %if.end16

if.then8:                                         ; preds = %if.end
  %16 = load ptr, ptr %dev, align 8
  %17 = load ptr, ptr %msg.addr, align 8
  %18 = load i64, ptr %msg_len_out.addr, align 8
  %conv9 = trunc i64 %18 to i32
  %call10 = call i32 @qemu_chr_fe_read_all(ptr noundef %16, ptr noundef %17, i32 noundef %conv9)
  %conv11 = sext i32 %call10 to i64
  store i64 %conv11, ptr %n, align 8
  %19 = load i64, ptr %n, align 8
  %cmp12 = icmp sle i64 %19, 0
  br i1 %cmp12, label %if.then14, label %if.end15

if.then14:                                        ; preds = %if.then8
  store i32 -1, ptr %retval, align 4
  store i32 1, ptr %cleanup.dest.slot, align 4
  br label %cleanup

if.end15:                                         ; preds = %if.then8
  br label %if.end16

if.end16:                                         ; preds = %if.end15, %if.end
  br label %for.inc

for.inc:                                          ; preds = %if.end16
  %20 = load ptr, ptr %qemu_lockable_auto0, align 8
  call void @qemu_lockable_auto_unlock(ptr noundef %20)
  store ptr null, ptr %qemu_lockable_auto0, align 8
  br label %for.cond, !llvm.loop !5

cleanup:                                          ; preds = %if.then14, %if.then, %for.cond.cleanup
  call void @glib_autoptr_cleanup_QemuLockable(ptr noundef %qemu_lockable_auto0)
  %cleanup.dest = load i32, ptr %cleanup.dest.slot, align 4
  switch i32 %cleanup.dest, label %unreachable [
    i32 2, label %for.end
    i32 1, label %return
  ]

for.end:                                          ; preds = %cleanup
  store i32 0, ptr %retval, align 4
  br label %return

return:                                           ; preds = %for.end, %cleanup
  %21 = load i32, ptr %retval, align 4
  ret i32 %21

unreachable:                                      ; preds = %cleanup
  unreachable
}

; Function Attrs: nounwind sspstrong uwtable
define internal ptr @TPM_EMULATOR(ptr noundef %obj) #0 {
entry:
  %obj.addr = alloca ptr, align 8
  store ptr %obj, ptr %obj.addr, align 8
  %0 = load ptr, ptr %obj.addr, align 8
  %call = call ptr @object_dynamic_cast_assert(ptr noundef %0, ptr noundef @.str, ptr noundef @.str.2, i32 noundef 50, ptr noundef @__func__.TPM_EMULATOR)
  ret ptr %call
}

; Function Attrs: nounwind sspstrong uwtable
define internal zeroext i1 @tpm_emulator_get_tpm_established_flag(ptr noundef %tb) #0 {
entry:
  %retval = alloca i1, align 1
  %tb.addr = alloca ptr, align 8
  %tpm_emu = alloca ptr, align 8
  %est = alloca %struct.ptm_est, align 4
  store ptr %tb, ptr %tb.addr, align 8
  %0 = load ptr, ptr %tb.addr, align 8
  %call = call ptr @TPM_EMULATOR(ptr noundef %0)
  store ptr %call, ptr %tpm_emu, align 8
  %1 = load ptr, ptr %tpm_emu, align 8
  %established_flag_cached = getelementptr inbounds %struct.TPMEmulator, ptr %1, i32 0, i32 9
  %bf.load = load i8, ptr %established_flag_cached, align 8
  %bf.lshr = lshr i8 %bf.load, 1
  %bf.clear = and i8 %bf.lshr, 1
  %bf.cast = zext i8 %bf.clear to i32
  %tobool = icmp ne i32 %bf.cast, 0
  br i1 %tobool, label %if.then, label %if.end

if.then:                                          ; preds = %entry
  %2 = load ptr, ptr %tpm_emu, align 8
  %established_flag = getelementptr inbounds %struct.TPMEmulator, ptr %2, i32 0, i32 9
  %bf.load1 = load i8, ptr %established_flag, align 8
  %bf.clear2 = and i8 %bf.load1, 1
  %bf.cast3 = zext i8 %bf.clear2 to i32
  %tobool4 = icmp ne i32 %bf.cast3, 0
  store i1 %tobool4, ptr %retval, align 1
  br label %return

if.end:                                           ; preds = %entry
  %3 = load ptr, ptr %tpm_emu, align 8
  %call5 = call i32 @tpm_emulator_ctrlcmd(ptr noundef %3, i64 noundef 4, ptr noundef %est, i64 noundef 0, i64 noundef 8)
  %cmp = icmp slt i32 %call5, 0
  br i1 %cmp, label %if.then6, label %if.end9

if.then6:                                         ; preds = %if.end
  %call7 = call ptr @__errno_location() #12
  %4 = load i32, ptr %call7, align 4
  %call8 = call ptr @strerror(i32 noundef %4) #11
  call void (ptr, ...) @error_report(ptr noundef @.str.104, ptr noundef %call8)
  store i1 false, ptr %retval, align 1
  br label %return

if.end9:                                          ; preds = %if.end
  %u = getelementptr inbounds %struct.ptm_est, ptr %est, i32 0, i32 0
  %bit = getelementptr inbounds %struct.anon.15, ptr %u, i32 0, i32 1
  %5 = load i8, ptr %bit, align 4
  call void @trace_tpm_emulator_get_tpm_established_flag(i8 noundef zeroext %5)
  %6 = load ptr, ptr %tpm_emu, align 8
  %established_flag_cached10 = getelementptr inbounds %struct.TPMEmulator, ptr %6, i32 0, i32 9
  %bf.load11 = load i8, ptr %established_flag_cached10, align 8
  %bf.clear12 = and i8 %bf.load11, -3
  %bf.set = or i8 %bf.clear12, 2
  store i8 %bf.set, ptr %established_flag_cached10, align 8
  %u13 = getelementptr inbounds %struct.ptm_est, ptr %est, i32 0, i32 0
  %bit14 = getelementptr inbounds %struct.anon.15, ptr %u13, i32 0, i32 1
  %7 = load i8, ptr %bit14, align 4
  %conv = zext i8 %7 to i32
  %cmp15 = icmp ne i32 %conv, 0
  %conv16 = zext i1 %cmp15 to i32
  %8 = load ptr, ptr %tpm_emu, align 8
  %established_flag17 = getelementptr inbounds %struct.TPMEmulator, ptr %8, i32 0, i32 9
  %9 = trunc i32 %conv16 to i8
  %bf.load18 = load i8, ptr %established_flag17, align 8
  %bf.value = and i8 %9, 1
  %bf.clear19 = and i8 %bf.load18, -2
  %bf.set20 = or i8 %bf.clear19, %bf.value
  store i8 %bf.set20, ptr %established_flag17, align 8
  %10 = load ptr, ptr %tpm_emu, align 8
  %established_flag21 = getelementptr inbounds %struct.TPMEmulator, ptr %10, i32 0, i32 9
  %bf.load22 = load i8, ptr %established_flag21, align 8
  %bf.clear23 = and i8 %bf.load22, 1
  %bf.cast24 = zext i8 %bf.clear23 to i32
  %tobool25 = icmp ne i32 %bf.cast24, 0
  store i1 %tobool25, ptr %retval, align 1
  br label %return

return:                                           ; preds = %if.end9, %if.then6, %if.then
  %11 = load i1, ptr %retval, align 1
  ret i1 %11
}