; Function Attrs: nounwind sspstrong uwtable
define internal zeroext i1 @tpm_emulator_get_tpm_established_flag(ptr noundef %tb) #0 {
entry:
  %_now.i.i = alloca %struct.timeval, align 8
  %0 = alloca [4 x i8], align 16
  %est = alloca %struct.ptm_est, align 4
  %call.i = tail call ptr @object_dynamic_cast_assert(ptr noundef %tb, ptr noundef nonnull @.str, ptr noundef nonnull @.str.2, i32 noundef 50, ptr noundef nonnull @__func__.TPM_EMULATOR) #12
  %established_flag_cached = getelementptr inbounds nuw i8, ptr %call.i, i64 240
  %bf.load = load i8, ptr %established_flag_cached, align 8
  %1 = and i8 %bf.load, 2
  %tobool.not = icmp eq i8 %1, 0
  br i1 %tobool.not, label %if.end, label %if.then

if.then:                                          ; preds = %entry
  %bf.clear2 = and i8 %bf.load, 1
  %tobool4 = icmp ne i8 %bf.clear2, 0
  br label %return

if.end:                                           ; preds = %entry
  %savedstack = tail call ptr @llvm.stacksave.p0()
  call void @llvm.lifetime.start.p0(i64 4, ptr nonnull %0)
  %ctrl_chr.i = getelementptr inbounds nuw i8, ptr %call.i, i64 96
  %mutex.i = getelementptr inbounds nuw i8, ptr %call.i, i64 192
  %2 = load atomic i64, ptr @qemu_mutex_lock_func monotonic, align 8
  %3 = inttoptr i64 %2 to ptr
  tail call void %3(ptr noundef nonnull %mutex.i, ptr noundef nonnull @.str.11, i32 noundef 122) #12
  store i32 67108864, ptr %0, align 16
  %call3.us52.i = call i32 @qemu_chr_fe_write_all(ptr noundef nonnull %ctrl_chr.i, ptr noundef nonnull %0, i32 noundef 4) #12
  %cmp.us53.i = icmp slt i32 %call3.us52.i, 1
  br i1 %cmp.us53.i, label %qemu_lockable_auto_unlock.exit.i.i.i, label %if.end.i

if.end.i:                                         ; preds = %if.end
  %call10.i = call i32 @qemu_chr_fe_read_all(ptr noundef nonnull %ctrl_chr.i, ptr noundef nonnull %est, i32 noundef 8) #12
  %cmp12.i = icmp slt i32 %call10.i, 1
  br i1 %cmp12.i, label %qemu_lockable_auto_unlock.exit.i.i.i, label %tpm_emulator_ctrlcmd.exit

qemu_lockable_auto_unlock.exit.i.i.i:             ; preds = %if.end.i, %if.end
  call void @qemu_mutex_unlock_impl(ptr noundef nonnull %mutex.i, ptr noundef nonnull @.str.11, i32 noundef 132) #12
  call void @llvm.lifetime.end.p0(i64 4, ptr nonnull %0)
  call void @llvm.stackrestore.p0(ptr %savedstack)
  %call7 = tail call ptr @__errno_location() #14
  %4 = load i32, ptr %call7, align 4
  %call8 = call ptr @strerror(i32 noundef %4) #12
  call void (ptr, ...) @error_report(ptr noundef nonnull @.str.104, ptr noundef %call8) #12
  br label %return

tpm_emulator_ctrlcmd.exit:                        ; preds = %if.end.i
  call void @qemu_mutex_unlock_impl(ptr noundef nonnull %mutex.i, ptr noundef nonnull @.str.11, i32 noundef 132) #12
  call void @llvm.lifetime.end.p0(i64 4, ptr nonnull %0)
  call void @llvm.stackrestore.p0(ptr %savedstack)
  %bit = getelementptr inbounds nuw i8, ptr %est, i64 4
  %5 = load i8, ptr %bit, align 4
  call void @llvm.lifetime.start.p0(i64 16, ptr nonnull %_now.i.i)
  %6 = load i32, ptr @trace_events_enabled_count, align 4
  %tobool.i.i = icmp ne i32 %6, 0
  %7 = load i16, ptr @_TRACE_TPM_EMULATOR_GET_TPM_ESTABLISHED_FLAG_DSTATE, align 2
  %tobool4.i.i = icmp ne i16 %7, 0
  %or.cond.i.i = select i1 %tobool.i.i, i1 %tobool4.i.i, i1 false
  br i1 %or.cond.i.i, label %land.lhs.true5.i.i, label %trace_tpm_emulator_get_tpm_established_flag.exit

land.lhs.true5.i.i:                               ; preds = %tpm_emulator_ctrlcmd.exit
  %8 = load i32, ptr @qemu_loglevel, align 4
  %and.i.i.i = and i32 %8, 32768
  %cmp.i.not.i.i = icmp eq i32 %and.i.i.i, 0
  br i1 %cmp.i.not.i.i, label %trace_tpm_emulator_get_tpm_established_flag.exit, label %if.then.i.i

if.then.i.i:                                      ; preds = %land.lhs.true5.i.i
  %9 = load i8, ptr @message_with_timestamp, align 1
  %tobool7.i.i = trunc i8 %9 to i1
  br i1 %tobool7.i.i, label %if.then8.i.i, label %if.else.i.i

if.then8.i.i:                                     ; preds = %if.then.i.i
  %call9.i.i = call i32 @gettimeofday(ptr noundef nonnull %_now.i.i, ptr noundef null) #12
  %call10.i.i = call i32 @qemu_get_thread_id() #12
  %10 = load i64, ptr %_now.i.i, align 8
  %tv_usec.i.i = getelementptr inbounds nuw i8, ptr %_now.i.i, i64 8
  %11 = load i64, ptr %tv_usec.i.i, align 8
  %conv11.i.i = zext i8 %5 to i32
  call void (ptr, ...) @qemu_log(ptr noundef nonnull @.str.105, i32 noundef %call10.i.i, i64 noundef %10, i64 noundef %11, i32 noundef %conv11.i.i) #12
  br label %trace_tpm_emulator_get_tpm_established_flag.exit

if.else.i.i:                                      ; preds = %if.then.i.i
  %conv12.i.i = zext i8 %5 to i32
  call void (ptr, ...) @qemu_log(ptr noundef nonnull @.str.106, i32 noundef %conv12.i.i) #12
  br label %trace_tpm_emulator_get_tpm_established_flag.exit

trace_tpm_emulator_get_tpm_established_flag.exit: ; preds = %tpm_emulator_ctrlcmd.exit, %land.lhs.true5.i.i, %if.then8.i.i, %if.else.i.i
  call void @llvm.lifetime.end.p0(i64 16, ptr nonnull %_now.i.i)
  %bf.load11 = load i8, ptr %established_flag_cached, align 8
  %12 = load i8, ptr %bit, align 4
  %cmp15 = icmp ne i8 %12, 0
  %13 = zext i1 %cmp15 to i8
  %bf.set = and i8 %bf.load11, -4
  %bf.clear19 = or disjoint i8 %bf.set, %13
  %bf.set20 = or disjoint i8 %bf.clear19, 2
  store i8 %bf.set20, ptr %established_flag_cached, align 8
  br label %return

return:                                           ; preds = %trace_tpm_emulator_get_tpm_established_flag.exit, %qemu_lockable_auto_unlock.exit.i.i.i, %if.then
  %retval.0 = phi i1 [ %tobool4, %if.then ], [ false, %qemu_lockable_auto_unlock.exit.i.i.i ], [ %cmp15, %trace_tpm_emulator_get_tpm_established_flag.exit ]
  ret i1 %retval.0
}